target datalayout = "e-m:e-p270:32:32-p271:32:32-p272:64:64-i64:64-i128:128-f80:128-n8:16:32:64-S128"
target triple = "x86_64-pc-linux-gnu"

%struct.FLAC__StreamMetadata = type { i32, i32, i32, %union.anon }
%union.anon = type { %struct.FLAC__StreamMetadata_CueSheet }
%struct.FLAC__StreamMetadata_CueSheet = type { [129 x i8], i64, i32, i32, ptr }
%struct.FLAC__StreamMetadata_VorbisComment = type { %struct.FLAC__StreamMetadata_VorbisComment_Entry, i32, ptr }
%struct.FLAC__StreamMetadata_VorbisComment_Entry = type { i32, ptr }

; Function Attrs: alwaysinline nounwind
define internal ptr @memmove.inline(ptr nonnull %0, ptr nonnull %1, i64 %2) #5 {
  %4 = alloca ptr, align 8
  %5 = alloca ptr, align 8
  %6 = alloca i64, align 8
  store ptr %0, ptr %4, align 8, !tbaa !27
  store ptr %1, ptr %5, align 8, !tbaa !27
  store i64 %2, ptr %6, align 8, !tbaa !28
  %7 = load ptr, ptr %4, align 8, !tbaa !27
  %8 = load ptr, ptr %5, align 8, !tbaa !27
  %9 = load i64, ptr %6, align 8, !tbaa !28
  %10 = load ptr, ptr %4, align 8, !tbaa !27
  %11 = call i64 @llvm.objectsize.i64.p0(ptr %10, i1 false, i1 true, i1 false)
  %12 = call ptr @__memmove_chk(ptr noundef %7, ptr noundef %8, i64 noundef %9, i64 noundef %11) #12
  ret ptr %12
}

; Function Attrs: nounwind sspstrong uwtable
define i32 @FLAC__metadata_object_vorbiscomment_delete_comment(ptr noundef %0, i32 noundef %1) #0 {
  %3 = alloca ptr, align 8
  %4 = alloca i32, align 4
  %5 = alloca ptr, align 8
  store ptr %0, ptr %3, align 8, !tbaa !7
  store i32 %1, ptr %4, align 4, !tbaa !3
  call void @llvm.lifetime.start.p0(i64 8, ptr %5) #12
  %6 = load ptr, ptr %3, align 8, !tbaa !7
  %7 = getelementptr inbounds nuw %struct.FLAC__StreamMetadata, ptr %6, i32 0, i32 3
  store ptr %7, ptr %5, align 8, !tbaa !27
  %8 = load ptr, ptr %5, align 8, !tbaa !27
  %9 = getelementptr inbounds nuw %struct.FLAC__StreamMetadata_VorbisComment, ptr %8, i32 0, i32 2
  %10 = load ptr, ptr %9, align 8, !tbaa !58
  %11 = load i32, ptr %4, align 4, !tbaa !3
  %12 = zext i32 %11 to i64
  %13 = getelementptr inbounds nuw %struct.FLAC__StreamMetadata_VorbisComment_Entry, ptr %10, i64 %12
  %14 = getelementptr inbounds nuw %struct.FLAC__StreamMetadata_VorbisComment_Entry, ptr %13, i32 0, i32 1
  %15 = load ptr, ptr %14, align 8, !tbaa !29
  call void @free(ptr noundef %15) #12
  %16 = load ptr, ptr %5, align 8, !tbaa !27
  %17 = getelementptr inbounds nuw %struct.FLAC__StreamMetadata_VorbisComment, ptr %16, i32 0, i32 2
  %18 = load ptr, ptr %17, align 8, !tbaa !58
  %19 = load i32, ptr %4, align 4, !tbaa !3
  %20 = zext i32 %19 to i64
  %21 = getelementptr inbounds nuw %struct.FLAC__StreamMetadata_VorbisComment_Entry, ptr %18, i64 %20
  %22 = load ptr, ptr %5, align 8, !tbaa !27
  %23 = getelementptr inbounds nuw %struct.FLAC__StreamMetadata_VorbisComment, ptr %22, i32 0, i32 2
  %24 = load ptr, ptr %23, align 8, !tbaa !58
  %25 = load i32, ptr %4, align 4, !tbaa !3
  %26 = add i32 %25, 1
  %27 = zext i32 %26 to i64
  %28 = getelementptr inbounds nuw %struct.FLAC__StreamMetadata_VorbisComment_Entry, ptr %24, i64 %27
  %29 = load ptr, ptr %5, align 8, !tbaa !27
  %30 = getelementptr inbounds nuw %struct.FLAC__StreamMetadata_VorbisComment, ptr %29, i32 0, i32 1
  %31 = load i32, ptr %30, align 8, !tbaa !57
  %32 = load i32, ptr %4, align 4, !tbaa !3
  %33 = sub i32 %31, %32
  %34 = sub i32 %33, 1
  %35 = zext i32 %34 to i64
  %36 = mul i64 16, %35
  %37 = call ptr @memmove.inline(ptr noundef %21, ptr noundef %28, i64 noundef %36) #12
  %38 = load ptr, ptr %5, align 8, !tbaa !27
  %39 = getelementptr inbounds nuw %struct.FLAC__StreamMetadata_VorbisComment, ptr %38, i32 0, i32 2
  %40 = load ptr, ptr %39, align 8, !tbaa !58
  %41 = load ptr, ptr %5, align 8, !tbaa !27
  %42 = getelementptr inbounds nuw %struct.FLAC__StreamMetadata_VorbisComment, ptr %41, i32 0, i32 1
  %43 = load i32, ptr %42, align 8, !tbaa !57
  %44 = sub i32 %43, 1
  %45 = zext i32 %44 to i64
  %46 = getelementptr inbounds nuw %struct.FLAC__StreamMetadata_VorbisComment_Entry, ptr %40, i64 %45
  %47 = getelementptr inbounds nuw %struct.FLAC__StreamMetadata_VorbisComment_Entry, ptr %46, i32 0, i32 0
  store i32 0, ptr %47, align 8, !tbaa !19
  %48 = load ptr, ptr %5, align 8, !tbaa !27
  %49 = getelementptr inbounds nuw %struct.FLAC__StreamMetadata_VorbisComment, ptr %48, i32 0, i32 2
  %50 = load ptr, ptr %49, align 8, !tbaa !58
  %51 = load ptr, ptr %5, align 8, !tbaa !27
  %52 = getelementptr inbounds nuw %struct.FLAC__StreamMetadata_VorbisComment, ptr %51, i32 0, i32 1
  %53 = load i32, ptr %52, align 8, !tbaa !57
  %54 = sub i32 %53, 1
  %55 = zext i32 %54 to i64
  %56 = getelementptr inbounds nuw %struct.FLAC__StreamMetadata_VorbisComment_Entry, ptr %50, i64 %55
  %57 = getelementptr inbounds nuw %struct.FLAC__StreamMetadata_VorbisComment_Entry, ptr %56, i32 0, i32 1
  store ptr null, ptr %57, align 8, !tbaa !29
  %58 = load ptr, ptr %3, align 8, !tbaa !7
  %59 = load ptr, ptr %5, align 8, !tbaa !27
  %60 = getelementptr inbounds nuw %struct.FLAC__StreamMetadata_VorbisComment, ptr %59, i32 0, i32 1
  %61 = load i32, ptr %60, align 8, !tbaa !57
  %62 = sub i32 %61, 1
  %63 = call i32 @FLAC__metadata_object_vorbiscomment_resize_comments(ptr noundef %58, i32 noundef %62)
  call void @llvm.lifetime.end.p0(i64 8, ptr %5) #12
  ret i32 %63
}

; Function Attrs: nounwind sspstrong uwtable
define i32 @FLAC__metadata_object_vorbiscomment_entry_matches(i32 %0, ptr %1, ptr noundef %2, i32 noundef %3) #0 {
  %5 = alloca %struct.FLAC__StreamMetadata_VorbisComment_Entry, align 8
  %6 = alloca ptr, align 8
  %7 = alloca i32, align 4
  %8 = alloca ptr, align 8
  %9 = getelementptr inbounds nuw { i32, ptr }, ptr %5, i32 0, i32 0
  store i32 %0, ptr %9, align 8
  %10 = getelementptr inbounds nuw { i32, ptr }, ptr %5, i32 0, i32 1
  store ptr %1, ptr %10, align 8
  store ptr %2, ptr %6, align 8, !tbaa !14
  store i32 %3, ptr %7, align 4, !tbaa !3
  call void @llvm.lifetime.start.p0(i64 8, ptr %8) #12
  %11 = getelementptr inbounds nuw %struct.FLAC__StreamMetadata_VorbisComment_Entry, ptr %5, i32 0, i32 1
  %12 = load ptr, ptr %11, align 8, !tbaa !29
  %13 = getelementptr inbounds nuw %struct.FLAC__StreamMetadata_VorbisComment_Entry, ptr %5, i32 0, i32 0
  %14 = load i32, ptr %13, align 8, !tbaa !19
  %15 = zext i32 %14 to i64
  %16 = call ptr @memchr(ptr noundef %12, i32 noundef 61, i64 noundef %15) #14
  store ptr %16, ptr %8, align 8, !tbaa !14
  %17 = load ptr, ptr %8, align 8, !tbaa !14
  %18 = icmp ne ptr %17, null
  br i1 %18, label %19, label %37

19:                                               ; preds = %4
  %20 = load ptr, ptr %8, align 8, !tbaa !14
  %21 = getelementptr inbounds nuw %struct.FLAC__StreamMetadata_VorbisComment_Entry, ptr %5, i32 0, i32 1
  %22 = load ptr, ptr %21, align 8, !tbaa !29
  %23 = ptrtoint ptr %20 to i64
  %24 = ptrtoint ptr %22 to i64
  %25 = sub i64 %23, %24
  %26 = trunc i64 %25 to i32
  %27 = load i32, ptr %7, align 4, !tbaa !3
  %28 = icmp eq i32 %26, %27
  br i1 %28, label %29, label %37

29:                                               ; preds = %19
  %30 = load ptr, ptr %6, align 8, !tbaa !14
  %31 = getelementptr inbounds nuw %struct.FLAC__StreamMetadata_VorbisComment_Entry, ptr %5, i32 0, i32 1
  %32 = load ptr, ptr %31, align 8, !tbaa !29
  %33 = load i32, ptr %7, align 4, !tbaa !3
  %34 = zext i32 %33 to i64
  %35 = call i32 @strncasecmp(ptr noundef %30, ptr noundef %32, i64 noundef %34) #14
  %36 = icmp eq i32 %35, 0
  br label %37

37:                                               ; preds = %29, %19, %4
  %38 = phi i1 [ false, %19 ], [ false, %4 ], [ %36, %29 ]
  %39 = zext i1 %38 to i32
  call void @llvm.lifetime.end.p0(i64 8, ptr %8) #12
  ret i32 %39
}

; Function Attrs: nounwind sspstrong uwtable
define i32 @FLAC__metadata_object_vorbiscomment_remove_entry_matching(ptr noundef %0, ptr noundef %1) #0 {
  %3 = alloca i32, align 4
  %4 = alloca ptr, align 8
  %5 = alloca ptr, align 8
  %6 = alloca i32, align 4
  %7 = alloca i32, align 4
  %8 = alloca i32, align 4
  store ptr %0, ptr %4, align 8, !tbaa !7
  store ptr %1, ptr %5, align 8, !tbaa !14
  call void @llvm.lifetime.start.p0(i64 4, ptr %6) #12
  %9 = load ptr, ptr %5, align 8, !tbaa !14
  %10 = call i64 @strlen(ptr noundef %9) #14
  %11 = trunc i64 %10 to i32
  store i32 %11, ptr %6, align 4, !tbaa !3
  call void @llvm.lifetime.start.p0(i64 4, ptr %7) #12
  store i32 0, ptr %7, align 4, !tbaa !3
  br label %12

12:                                               ; preds = %43, %2
  %13 = load i32, ptr %7, align 4, !tbaa !3
  %14 = load ptr, ptr %4, align 8, !tbaa !7
  %15 = getelementptr inbounds nuw %struct.FLAC__StreamMetadata, ptr %14, i32 0, i32 3
  %16 = getelementptr inbounds nuw %struct.FLAC__StreamMetadata_VorbisComment, ptr %15, i32 0, i32 1
  %17 = load i32, ptr %16, align 8, !tbaa !16
  %18 = icmp ult i32 %13, %17
  br i1 %18, label %19, label %46

19:                                               ; preds = %12
  %20 = load ptr, ptr %4, align 8, !tbaa !7
  %21 = getelementptr inbounds nuw %struct.FLAC__StreamMetadata, ptr %20, i32 0, i32 3
  %22 = getelementptr inbounds nuw %struct.FLAC__StreamMetadata_VorbisComment, ptr %21, i32 0, i32 2
  %23 = load ptr, ptr %22, align 8, !tbaa !16
  %24 = load i32, ptr %7, align 4, !tbaa !3
  %25 = zext i32 %24 to i64
  %26 = getelementptr inbounds nuw %struct.FLAC__StreamMetadata_VorbisComment_Entry, ptr %23, i64 %25
  %27 = load ptr, ptr %5, align 8, !tbaa !14
  %28 = load i32, ptr %6, align 4, !tbaa !3
  %29 = getelementptr inbounds nuw { i32, ptr }, ptr %26, i32 0, i32 0
  %30 = load i32, ptr %29, align 8
  %31 = getelementptr inbounds nuw { i32, ptr }, ptr %26, i32 0, i32 1
  %32 = load ptr, ptr %31, align 8
  %33 = call i32 @FLAC__metadata_object_vorbiscomment_entry_matches(i32 %30, ptr %32, ptr noundef %27, i32 noundef %28)
  %34 = icmp ne i32 %33, 0
  br i1 %34, label %35, label %42

35:                                               ; preds = %19
  %36 = load ptr, ptr %4, align 8, !tbaa !7
  %37 = load i32, ptr %7, align 4, !tbaa !3
  %38 = call i32 @FLAC__metadata_object_vorbiscomment_delete_comment(ptr noundef %36, i32 noundef %37)
  %39 = icmp ne i32 %38, 0
  br i1 %39, label %41, label %40

40:                                               ; preds = %35
  store i32 -1, ptr %3, align 4
  store i32 1, ptr %8, align 4
  br label %47

41:                                               ; preds = %35
  store i32 1, ptr %3, align 4
  store i32 1, ptr %8, align 4
  br label %47

42:                                               ; preds = %19
  br label %43

43:                                               ; preds = %42
  %44 = load i32, ptr %7, align 4, !tbaa !3
  %45 = add i32 %44, 1
  store i32 %45, ptr %7, align 4, !tbaa !3
  br label %12, !llvm.loop !101

46:                                               ; preds = %12
  store i32 0, ptr %3, align 4
  store i32 1, ptr %8, align 4
  br label %47

47:                                               ; preds = %46, %41, %40
  call void @llvm.lifetime.end.p0(i64 4, ptr %7) #12
  call void @llvm.lifetime.end.p0(i64 4, ptr %6) #12
  %48 = load i32, ptr %3, align 4
  ret i32 %48
}