; Function Attrs: nounwind sspstrong uwtable
define range(i32 -1, 2) i32 @FLAC__metadata_object_vorbiscomment_remove_entry_matching(ptr noundef captures(none) %0, ptr noundef readonly captures(none) %1) local_unnamed_addr #0 {
  %3 = tail call i64 @strlen(ptr noundef nonnull dereferenceable(1) %1) #29
  %4 = trunc i64 %3 to i32
  %5 = getelementptr inbounds nuw i8, ptr %0, i64 32
  %6 = load i32, ptr %5, align 8, !tbaa !13
  %.not19 = icmp eq i32 %6, 0
  br i1 %.not19, label %.loopexit, label %.lr.ph

.lr.ph:                                           ; preds = %2
  %7 = getelementptr inbounds nuw i8, ptr %0, i64 40
  %8 = load ptr, ptr %7, align 8, !tbaa !13
  %9 = and i64 %3, 4294967295
  %wide.trip.count = zext i32 %6 to i64
  br label %10

10:                                               ; preds = %.lr.ph, %FLAC__metadata_object_vorbiscomment_entry_matches.exit.thread
  %indvars.iv = phi i64 [ 0, %.lr.ph ], [ %indvars.iv.next, %FLAC__metadata_object_vorbiscomment_entry_matches.exit.thread ]
  %11 = getelementptr inbounds nuw %struct.FLAC__StreamMetadata_VorbisComment_Entry, ptr %8, i64 %indvars.iv
  %12 = load i32, ptr %11, align 8
  %13 = getelementptr inbounds nuw i8, ptr %11, i64 8
  %14 = load ptr, ptr %13, align 8
  %15 = zext i32 %12 to i64
  %16 = tail call ptr @memchr(ptr noundef %14, i32 noundef 61, i64 noundef %15) #29
  %.not.i = icmp ne ptr %16, null
  %17 = ptrtoint ptr %16 to i64
  %18 = ptrtoint ptr %14 to i64
  %19 = sub i64 %17, %18
  %20 = trunc i64 %19 to i32
  %21 = icmp eq i32 %4, %20
  %or.cond.i = and i1 %.not.i, %21
  br i1 %or.cond.i, label %FLAC__metadata_object_vorbiscomment_entry_matches.exit, label %FLAC__metadata_object_vorbiscomment_entry_matches.exit.thread

FLAC__metadata_object_vorbiscomment_entry_matches.exit: ; preds = %10
  %22 = tail call i32 @strncasecmp(ptr noundef nonnull readonly %1, ptr noundef %14, i64 noundef %9) #29
  %.not = icmp eq i32 %22, 0
  br i1 %.not, label %23, label %FLAC__metadata_object_vorbiscomment_entry_matches.exit.thread

23:                                               ; preds = %FLAC__metadata_object_vorbiscomment_entry_matches.exit
  %24 = trunc nuw i64 %indvars.iv to i32
  tail call void @free(ptr noundef %14) #31
  %25 = load ptr, ptr %7, align 8, !tbaa !52
  %26 = getelementptr inbounds nuw %struct.FLAC__StreamMetadata_VorbisComment_Entry, ptr %25, i64 %indvars.iv
  %27 = add nuw i64 %indvars.iv, 1
  %28 = and i64 %27, 4294967295
  %29 = getelementptr inbounds nuw %struct.FLAC__StreamMetadata_VorbisComment_Entry, ptr %25, i64 %28
  %30 = load i32, ptr %5, align 8, !tbaa !51
  %31 = xor i32 %24, -1
  %32 = add i32 %30, %31
  %33 = zext i32 %32 to i64
  %34 = shl nuw nsw i64 %33, 4
  tail call void @llvm.memmove.p0.p0.i64(ptr noundef nonnull align 1 %26, ptr noundef nonnull align 1 %29, i64 noundef range(i64 0, 137438953441) %34, i1 noundef false) #31
  %35 = load ptr, ptr %7, align 8, !tbaa !52
  %36 = load i32, ptr %5, align 8, !tbaa !51
  %37 = add i32 %36, -1
  %38 = zext i32 %37 to i64
  %39 = getelementptr inbounds nuw %struct.FLAC__StreamMetadata_VorbisComment_Entry, ptr %35, i64 %38
  store i32 0, ptr %39, align 8, !tbaa !15
  %40 = getelementptr inbounds nuw %struct.FLAC__StreamMetadata_VorbisComment_Entry, ptr %35, i64 %38, i32 1
  store ptr null, ptr %40, align 8, !tbaa !17
  %41 = tail call range(i32 0, 2) i32 @FLAC__metadata_object_vorbiscomment_resize_comments(ptr noundef nonnull %0, i32 noundef %37)
  %.not11 = icmp eq i32 %41, 0
  %. = select i1 %.not11, i32 -1, i32 1
  br label %.loopexit

FLAC__metadata_object_vorbiscomment_entry_matches.exit.thread: ; preds = %10, %FLAC__metadata_object_vorbiscomment_entry_matches.exit
  %indvars.iv.next = add nuw nsw i64 %indvars.iv, 1
  %exitcond.not = icmp eq i64 %indvars.iv.next, %wide.trip.count
  br i1 %exitcond.not, label %.loopexit, label %10, !llvm.loop !93

.loopexit:                                        ; preds = %FLAC__metadata_object_vorbiscomment_entry_matches.exit.thread, %2, %23
  %.010 = phi i32 [ %., %23 ], [ 0, %2 ], [ 0, %FLAC__metadata_object_vorbiscomment_entry_matches.exit.thread ]
  ret i32 %.010
}